; Function Attrs: nounwind uwtable
define internal noundef ptr @_blake2_blake2b_update(ptr noundef %0, ptr noundef %1) #2 {
  %3 = alloca %struct.Py_buffer, align 8
  call void @llvm.lifetime.start.p0(i64 80, ptr nonnull %3) #9
  %4 = getelementptr i8, ptr %1, i64 8
  %.val = load ptr, ptr %4, align 8, !tbaa !45
  %5 = getelementptr i8, ptr %.val, i64 168
  %.val17 = load i64, ptr %5, align 8, !tbaa !60
  %6 = and i64 %.val17, 268435456
  %.not14 = icmp eq i64 %6, 0
  br i1 %.not14, label %9, label %7

7:                                                ; preds = %2
  %8 = load ptr, ptr @PyExc_TypeError, align 8, !tbaa !55
  tail call void @PyErr_SetString(ptr noundef %8, ptr noundef nonnull @.str.22) #9
  br label %45

9:                                                ; preds = %2
  %10 = tail call i32 @PyObject_CheckBuffer(ptr noundef nonnull %1) #9
  %.not15 = icmp eq i32 %10, 0
  br i1 %.not15, label %11, label %13

11:                                               ; preds = %9
  %12 = load ptr, ptr @PyExc_TypeError, align 8, !tbaa !55
  tail call void @PyErr_SetString(ptr noundef %12, ptr noundef nonnull @.str.23) #9
  br label %45

13:                                               ; preds = %9
  %14 = call i32 @PyObject_GetBuffer(ptr noundef nonnull %1, ptr noundef nonnull %3, i32 noundef 0) #9
  %15 = icmp eq i32 %14, -1
  br i1 %15, label %45, label %16

16:                                               ; preds = %13
  %17 = getelementptr inbounds nuw i8, ptr %3, i64 36
  %18 = load i32, ptr %17, align 4, !tbaa !61
  %19 = icmp sgt i32 %18, 1
  br i1 %19, label %20, label %22

20:                                               ; preds = %16
  %21 = load ptr, ptr @PyExc_BufferError, align 8, !tbaa !55
  call void @PyErr_SetString(ptr noundef %21, ptr noundef nonnull @.str.24) #9
  call void @PyBuffer_Release(ptr noundef nonnull %3) #9
  br label %45

22:                                               ; preds = %16
  %23 = getelementptr inbounds nuw i8, ptr %0, i64 28
  %24 = load i8, ptr %23, align 4, !tbaa !59, !range !8, !noundef !9
  %25 = trunc nuw i8 %24 to i1
  %26 = getelementptr inbounds nuw i8, ptr %3, i64 16
  %27 = load i64, ptr %26, align 8
  %28 = icmp slt i64 %27, 2048
  %or.cond.not = select i1 %25, i1 true, i1 %28
  br i1 %or.cond.not, label %29, label %.thread

.thread:                                          ; preds = %22
  store i8 1, ptr %23, align 4, !tbaa !59
  br label %31

29:                                               ; preds = %22
  %30 = trunc nuw i8 %24 to i1
  br i1 %30, label %31, label %42

31:                                               ; preds = %.thread, %29
  %32 = call ptr @PyEval_SaveThread() #9
  %33 = getelementptr inbounds nuw i8, ptr %0, i64 29
  %34 = cmpxchg ptr %33, i8 0, i8 1 seq_cst seq_cst, align 1
  %35 = extractvalue { i8, i1 } %34, 1
  br i1 %35, label %_PyMutex_Lock.exit, label %36

36:                                               ; preds = %31
  call void @PyMutex_Lock(ptr noundef nonnull %33) #9
  br label %_PyMutex_Lock.exit

_PyMutex_Lock.exit:                               ; preds = %31, %36
  %37 = load ptr, ptr %3, align 8, !tbaa !62
  %38 = load i64, ptr %26, align 8, !tbaa !63
  call fastcc void @update(ptr noundef nonnull %0, ptr noundef %37, i64 noundef %38)
  %39 = cmpxchg ptr %33, i8 1, i8 0 seq_cst seq_cst, align 1
  %40 = extractvalue { i8, i1 } %39, 1
  br i1 %40, label %_PyMutex_Unlock.exit, label %41

41:                                               ; preds = %_PyMutex_Lock.exit
  call void @PyMutex_Unlock(ptr noundef nonnull %33) #9
  br label %_PyMutex_Unlock.exit

_PyMutex_Unlock.exit:                             ; preds = %_PyMutex_Lock.exit, %41
  call void @PyEval_RestoreThread(ptr noundef %32) #9
  br label %44

42:                                               ; preds = %29
  %43 = load ptr, ptr %3, align 8, !tbaa !62
  call fastcc void @update(ptr noundef nonnull %0, ptr noundef %43, i64 noundef %27)
  br label %44

44:                                               ; preds = %42, %_PyMutex_Unlock.exit
  call void @PyBuffer_Release(ptr noundef nonnull %3) #9
  br label %45

45:                                               ; preds = %13, %44, %20, %11, %7
  %.0 = phi ptr [ null, %7 ], [ null, %20 ], [ @_Py_NoneStruct, %44 ], [ null, %11 ], [ null, %13 ]
  call void @llvm.lifetime.end.p0(i64 80, ptr nonnull %3) #9
  ret ptr %.0
}